(dp0
S'ref_point'
p1
(dp2
sS'rw_dict'
p3
(dp4
S'cHj1_0p_cHj3_1p_cHu_0p_cHd_1p_cHudRe_0p_cHudIm_0p_cHW_0p_cHWtil_0p_cHB_0p_cHBtil_0p_cHWB_0p_cHWBtil_0p_cHbox_0p_cHDD_0p_cbHRe_0p_cbHIm_0p'
p5
I35
sS'cHj1_0p_cHj3_0p_cHu_0p_cHd_1p_cHudRe_0p_cHudIm_0p_cHW_0p_cHWtil_0p_cHB_0p_cHBtil_0p_cHWB_0p_cHWBtil_0p_cHbox_1p_cHDD_0p_cbHRe_0p_cbHIm_0p'
p6
I71
sS'cHj1_0p_cHj3_0p_cHu_0p_cHd_0p_cHudRe_0p_cHudIm_0p_cHW_0p_cHWtil_0p_cHB_0p_cHBtil_0p_cHWB_0p_cHWBtil_0p_cHbox_0p_cHDD_0p_cbHRe_1p_cbHIm_1p'
p7
I151
sS'cHj1_1p_cHj3_0p_cHu_0p_cHd_0p_cHudRe_0p_cHudIm_0p_cHW_0p_cHWtil_0p_cHB_0p_cHBtil_0p_cHWB_0p_cHWBtil_0p_cHbox_0p_cHDD_0p_cbHRe_0p_cbHIm_0p'
p8
I1
sS'cHj1_0p_cHj3_0p_cHu_0p_cHd_0p_cHudRe_0p_cHudIm_0p_cHW_0p_cHWtil_0p_cHB_1p_cHBtil_0p_cHWB_1p_cHWBtil_0p_cHbox_0p_cHDD_0p_cbHRe_0p_cbHIm_0p'
p9
I119
sS'cHj1_0p_cHj3_1p_cHu_0p_cHd_0p_cHudRe_0p_cHudIm_0p_cHW_0p_cHWtil_0p_cHB_0p_cHBtil_0p_cHWB_0p_cHWBtil_0p_cHbox_0p_cHDD_0p_cbHRe_1p_cbHIm_0p'
p10
I46
sS'cHj1_0p_cHj3_0p_cHu_0p_cHd_0p_cHudRe_0p_cHudIm_0p_cHW_0p_cHWtil_0p_cHB_0p_cHBtil_1p_cHWB_0p_cHWBtil_0p_cHbox_0p_cHDD_0p_cbHRe_0p_cbHIm_1p'
p11
I131
sS'cHj1_0p_cHj3_0p_cHu_0p_cHd_0p_cHudRe_0p_cHudIm_0p_cHW_0p_cHWtil_0p_cHB_0p_cHBtil_1p_cHWB_0p_cHWBtil_0p_cHbox_0p_cHDD_0p_cbHRe_0p_cbHIm_0p'
p12
I10
sS'cHj1_0p_cHj3_0p_cHu_1p_cHd_0p_cHudRe_0p_cHudIm_0p_cHW_0p_cHWtil_0p_cHB_0p_cHBtil_0p_cHWB_1p_cHWBtil_0p_cHbox_0p_cHDD_0p_cbHRe_0p_cbHIm_0p'
p13
I56
sS'cHj1_0p_cHj3_0p_cHu_0p_cHd_1p_cHudRe_0p_cHudIm_1p_cHW_0p_cHWtil_0p_cHB_0p_cHBtil_0p_cHWB_0p_cHWBtil_0p_cHbox_0p_cHDD_0p_cbHRe_0p_cbHIm_0p'
p14
I64
sS'cHj1_0p_cHj3_0p_cHu_0p_cHd_0p_cHudRe_0p_cHudIm_1p_cHW_1p_cHWtil_0p_cHB_0p_cHBtil_0p_cHWB_0p_cHWBtil_0p_cHbox_0p_cHDD_0p_cbHRe_0p_cbHIm_0p'
p15
I88
sS'cHj1_0p_cHj3_0p_cHu_1p_cHd_0p_cHudRe_0p_cHudIm_0p_cHW_0p_cHWtil_1p_cHB_0p_cHBtil_0p_cHWB_0p_cHWBtil_0p_cHbox_0p_cHDD_0p_cbHRe_0p_cbHIm_0p'
p16
I53
sS'cHj1_0p_cHj3_1p_cHu_0p_cHd_0p_cHudRe_0p_cHudIm_0p_cHW_1p_cHWtil_0p_cHB_0p_cHBtil_0p_cHWB_0p_cHWBtil_0p_cHbox_0p_cHDD_0p_cbHRe_0p_cbHIm_0p'
p17
I38
sS'cHj1_0p_cHj3_1p_cHu_0p_cHd_0p_cHudRe_0p_cHudIm_0p_cHW_0p_cHWtil_1p_cHB_0p_cHBtil_0p_cHWB_0p_cHWBtil_0p_cHbox_0p_cHDD_0p_cbHRe_0p_cbHIm_0p'
p18
I39
sS'cHj1_0p_cHj3_0p_cHu_0p_cHd_0p_cHudRe_0p_cHudIm_0p_cHW_0p_cHWtil_0p_cHB_0p_cHBtil_1p_cHWB_0p_cHWBtil_0p_cHbox_0p_cHDD_0p_cbHRe_1p_cbHIm_0p'
p19
I130
sS'cHj1_0p_cHj3_0p_cHu_0p_cHd_0p_cHudRe_0p_cHudIm_1p_cHW_0p_cHWtil_0p_cHB_0p_cHBtil_0p_cHWB_0p_cHWBtil_0p_cHbox_0p_cHDD_0p_cbHRe_1p_cbHIm_0p'
p20
I96
sS'cHj1_0p_cHj3_0p_cHu_0p_cHd_1p_cHudRe_0p_cHudIm_0p_cHW_1p_cHWtil_0p_cHB_0p_cHBtil_0p_cHWB_0p_cHWBtil_0p_cHbox_0p_cHDD_0p_cbHRe_0p_cbHIm_0p'
p21
I65
sS'cHj1_0p_cHj3_0p_cHu_0p_cHd_0p_cHudRe_0p_cHudIm_0p_cHW_1p_cHWtil_0p_cHB_0p_cHBtil_0p_cHWB_0p_cHWBtil_0p_cHbox_0p_cHDD_1p_cbHRe_0p_cbHIm_0p'
p22
I105
sS'cHj1_0p_cHj3_0p_cHu_0p_cHd_0p_cHudRe_0p_cHudIm_0p_cHW_0p_cHWtil_1p_cHB_0p_cHBtil_0p_cHWB_0p_cHWBtil_0p_cHbox_0p_cHDD_0p_cbHRe_0p_cbHIm_0p'
p23
I8
sS'cHj1_0p_cHj3_0p_cHu_0p_cHd_0p_cHudRe_0p_cHudIm_0p_cHW_0p_cHWtil_1p_cHB_0p_cHBtil_1p_cHWB_0p_cHWBtil_0p_cHbox_0p_cHDD_0p_cbHRe_0p_cbHIm_0p'
p24
I110
sS'cHj1_0p_cHj3_0p_cHu_0p_cHd_0p_cHudRe_0p_cHudIm_0p_cHW_0p_cHWtil_0p_cHB_0p_cHBtil_0p_cHWB_0p_cHWBtil_0p_cHbox_1p_cHDD_0p_cbHRe_1p_cbHIm_0p'
p25
I145
sS'cHj1_0p_cHj3_0p_cHu_0p_cHd_0p_cHudRe_0p_cHudIm_0p_cHW_0p_cHWtil_0p_cHB_0p_cHBtil_2p_cHWB_0p_cHWBtil_0p_cHbox_0p_cHDD_0p_cbHRe_0p_cbHIm_0p'
p26
I125
sS'cHj1_1p_cHj3_0p_cHu_0p_cHd_0p_cHudRe_0p_cHudIm_0p_cHW_0p_cHWtil_0p_cHB_0p_cHBtil_0p_cHWB_0p_cHWBtil_0p_cHbox_0p_cHDD_0p_cbHRe_0p_cbHIm_1p'
p27
I32
sS'cHj1_0p_cHj3_0p_cHu_0p_cHd_0p_cHudRe_0p_cHudIm_1p_cHW_0p_cHWtil_0p_cHB_0p_cHBtil_0p_cHWB_0p_cHWBtil_0p_cHbox_1p_cHDD_0p_cbHRe_0p_cbHIm_0p'
p28
I94
sS'cHj1_0p_cHj3_1p_cHu_0p_cHd_0p_cHudRe_0p_cHudIm_0p_cHW_0p_cHWtil_0p_cHB_0p_cHBtil_0p_cHWB_0p_cHWBtil_0p_cHbox_0p_cHDD_1p_cbHRe_0p_cbHIm_0p'
p29
I45
sS'cHj1_1p_cHj3_0p_cHu_0p_cHd_0p_cHudRe_0p_cHudIm_0p_cHW_0p_cHWtil_0p_cHB_0p_cHBtil_0p_cHWB_0p_cHWBtil_1p_cHbox_0p_cHDD_0p_cbHRe_0p_cbHIm_0p'
p30
I28
sS'cHj1_0p_cHj3_1p_cHu_0p_cHd_0p_cHudRe_0p_cHudIm_0p_cHW_0p_cHWtil_0p_cHB_0p_cHBtil_0p_cHWB_0p_cHWBtil_0p_cHbox_0p_cHDD_0p_cbHRe_0p_cbHIm_0p'
p31
I2
sS'cHj1_0p_cHj3_0p_cHu_0p_cHd_0p_cHudRe_0p_cHudIm_0p_cHW_1p_cHWtil_0p_cHB_0p_cHBtil_0p_cHWB_0p_cHWBtil_1p_cHbox_0p_cHDD_0p_cbHRe_0p_cbHIm_0p'
p32
I103
sS'cHj1_0p_cHj3_0p_cHu_0p_cHd_0p_cHudRe_0p_cHudIm_0p_cHW_0p_cHWtil_1p_cHB_0p_cHBtil_0p_cHWB_0p_cHWBtil_0p_cHbox_0p_cHDD_0p_cbHRe_1p_cbHIm_0p'
p33
I115
sS'cHj1_0p_cHj3_0p_cHu_0p_cHd_0p_cHudRe_0p_cHudIm_0p_cHW_0p_cHWtil_1p_cHB_0p_cHBtil_0p_cHWB_1p_cHWBtil_0p_cHbox_0p_cHDD_0p_cbHRe_0p_cbHIm_0p'
p34
I111
sS'cHj1_1p_cHj3_0p_cHu_0p_cHd_1p_cHudRe_0p_cHudIm_0p_cHW_0p_cHWtil_0p_cHB_0p_cHBtil_0p_cHWB_0p_cHWBtil_0p_cHbox_0p_cHDD_0p_cbHRe_0p_cbHIm_0p'
p35
I20
sS'cHj1_0p_cHj3_0p_cHu_0p_cHd_0p_cHudRe_0p_cHudIm_0p_cHW_0p_cHWtil_0p_cHB_1p_cHBtil_0p_cHWB_0p_cHWBtil_0p_cHbox_0p_cHDD_0p_cbHRe_0p_cbHIm_1p'
p36
I124
sS'cHj1_1p_cHj3_0p_cHu_0p_cHd_0p_cHudRe_0p_cHudIm_0p_cHW_0p_cHWtil_0p_cHB_1p_cHBtil_0p_cHWB_0p_cHWBtil_0p_cHbox_0p_cHDD_0p_cbHRe_0p_cbHIm_0p'
p37
I25
sS'cHj1_0p_cHj3_0p_cHu_0p_cHd_0p_cHudRe_0p_cHudIm_0p_cHW_0p_cHWtil_2p_cHB_0p_cHBtil_0p_cHWB_0p_cHWBtil_0p_cHbox_0p_cHDD_0p_cbHRe_0p_cbHIm_0p'
p38
I108
sS'cHj1_0p_cHj3_0p_cHu_0p_cHd_0p_cHudRe_0p_cHudIm_0p_cHW_0p_cHWtil_0p_cHB_0p_cHBtil_0p_cHWB_0p_cHWBtil_0p_cHbox_1p_cHDD_0p_cbHRe_0p_cbHIm_0p'
p39
I13
sS'cHj1_0p_cHj3_0p_cHu_0p_cHd_0p_cHudRe_0p_cHudIm_0p_cHW_0p_cHWtil_0p_cHB_0p_cHBtil_0p_cHWB_1p_cHWBtil_0p_cHbox_1p_cHDD_0p_cbHRe_0p_cbHIm_0p'
p40
I134
sS'cHj1_0p_cHj3_0p_cHu_0p_cHd_0p_cHudRe_0p_cHudIm_0p_cHW_1p_cHWtil_1p_cHB_0p_cHBtil_0p_cHWB_0p_cHWBtil_0p_cHbox_0p_cHDD_0p_cbHRe_0p_cbHIm_0p'
p41
I99
sS'cHj1_0p_cHj3_0p_cHu_0p_cHd_1p_cHudRe_0p_cHudIm_0p_cHW_0p_cHWtil_0p_cHB_0p_cHBtil_0p_cHWB_0p_cHWBtil_0p_cHbox_0p_cHDD_1p_cbHRe_0p_cbHIm_0p'
p42
I72
sS'cHj1_0p_cHj3_0p_cHu_0p_cHd_0p_cHudRe_0p_cHudIm_0p_cHW_0p_cHWtil_0p_cHB_0p_cHBtil_0p_cHWB_0p_cHWBtil_0p_cHbox_0p_cHDD_2p_cbHRe_0p_cbHIm_0p'
p43
I147
sS'cHj1_0p_cHj3_0p_cHu_0p_cHd_0p_cHudRe_0p_cHudIm_0p_cHW_0p_cHWtil_1p_cHB_0p_cHBtil_0p_cHWB_0p_cHWBtil_0p_cHbox_0p_cHDD_0p_cbHRe_0p_cbHIm_1p'
p44
I116
sS'cHj1_0p_cHj3_0p_cHu_0p_cHd_0p_cHudRe_0p_cHudIm_0p_cHW_0p_cHWtil_0p_cHB_1p_cHBtil_1p_cHWB_0p_cHWBtil_0p_cHbox_0p_cHDD_0p_cbHRe_0p_cbHIm_0p'
p45
I118
sS'cHj1_1p_cHj3_0p_cHu_0p_cHd_0p_cHudRe_0p_cHudIm_0p_cHW_0p_cHWtil_0p_cHB_0p_cHBtil_0p_cHWB_0p_cHWBtil_0p_cHbox_1p_cHDD_0p_cbHRe_0p_cbHIm_0p'
p46
I29
sS'cHj1_1p_cHj3_0p_cHu_1p_cHd_0p_cHudRe_0p_cHudIm_0p_cHW_0p_cHWtil_0p_cHB_0p_cHBtil_0p_cHWB_0p_cHWBtil_0p_cHbox_0p_cHDD_0p_cbHRe_0p_cbHIm_0p'
p47
I19
sS'cHj1_0p_cHj3_0p_cHu_0p_cHd_0p_cHudRe_1p_cHudIm_0p_cHW_0p_cHWtil_0p_cHB_0p_cHBtil_0p_cHWB_0p_cHWBtil_0p_cHbox_0p_cHDD_0p_cbHRe_1p_cbHIm_0p'
p48
I85
sS'cHj1_0p_cHj3_1p_cHu_0p_cHd_0p_cHudRe_0p_cHudIm_0p_cHW_0p_cHWtil_0p_cHB_0p_cHBtil_0p_cHWB_0p_cHWBtil_0p_cHbox_0p_cHDD_0p_cbHRe_0p_cbHIm_1p'
p49
I47
sS'cHj1_0p_cHj3_0p_cHu_0p_cHd_0p_cHudRe_0p_cHudIm_1p_cHW_0p_cHWtil_0p_cHB_0p_cHBtil_0p_cHWB_0p_cHWBtil_1p_cHbox_0p_cHDD_0p_cbHRe_0p_cbHIm_0p'
p50
I93
sS'cHj1_1p_cHj3_0p_cHu_0p_cHd_0p_cHudRe_0p_cHudIm_1p_cHW_0p_cHWtil_0p_cHB_0p_cHBtil_0p_cHWB_0p_cHWBtil_0p_cHbox_0p_cHDD_0p_cbHRe_0p_cbHIm_0p'
p51
I22
sS'cHj1_0p_cHj3_0p_cHu_0p_cHd_0p_cHudRe_0p_cHudIm_0p_cHW_0p_cHWtil_0p_cHB_0p_cHBtil_0p_cHWB_1p_cHWBtil_0p_cHbox_0p_cHDD_0p_cbHRe_1p_cbHIm_0p'
p52
I136
sS'cHj1_0p_cHj3_2p_cHu_0p_cHd_0p_cHudRe_0p_cHudIm_0p_cHW_0p_cHWtil_0p_cHB_0p_cHBtil_0p_cHWB_0p_cHWBtil_0p_cHbox_0p_cHDD_0p_cbHRe_0p_cbHIm_0p'
p53
I33
sS'cHj1_0p_cHj3_0p_cHu_0p_cHd_0p_cHudRe_0p_cHudIm_0p_cHW_0p_cHWtil_0p_cHB_0p_cHBtil_0p_cHWB_0p_cHWBtil_0p_cHbox_1p_cHDD_0p_cbHRe_0p_cbHIm_1p'
p54
I146
sS'cHj1_0p_cHj3_0p_cHu_0p_cHd_1p_cHudRe_0p_cHudIm_0p_cHW_0p_cHWtil_0p_cHB_0p_cHBtil_0p_cHWB_1p_cHWBtil_0p_cHbox_0p_cHDD_0p_cbHRe_0p_cbHIm_0p'
p55
I69
sS'cHj1_1p_cHj3_0p_cHu_0p_cHd_0p_cHudRe_0p_cHudIm_0p_cHW_1p_cHWtil_0p_cHB_0p_cHBtil_0p_cHWB_0p_cHWBtil_0p_cHbox_0p_cHDD_0p_cbHRe_0p_cbHIm_0p'
p56
I23
sS'cHj1_0p_cHj3_1p_cHu_0p_cHd_0p_cHudRe_1p_cHudIm_0p_cHW_0p_cHWtil_0p_cHB_0p_cHBtil_0p_cHWB_0p_cHWBtil_0p_cHbox_0p_cHDD_0p_cbHRe_0p_cbHIm_0p'
p57
I36
sS'cHj1_0p_cHj3_0p_cHu_0p_cHd_0p_cHudRe_1p_cHudIm_0p_cHW_0p_cHWtil_0p_cHB_0p_cHBtil_1p_cHWB_0p_cHWBtil_0p_cHbox_0p_cHDD_0p_cbHRe_0p_cbHIm_0p'
p58
I80
sS'cHj1_0p_cHj3_0p_cHu_0p_cHd_0p_cHudRe_0p_cHudIm_0p_cHW_0p_cHWtil_0p_cHB_1p_cHBtil_0p_cHWB_0p_cHWBtil_0p_cHbox_0p_cHDD_1p_cbHRe_0p_cbHIm_0p'
p59
I122
sS'cHj1_0p_cHj3_0p_cHu_0p_cHd_0p_cHudRe_0p_cHudIm_0p_cHW_0p_cHWtil_0p_cHB_0p_cHBtil_1p_cHWB_0p_cHWBtil_0p_cHbox_0p_cHDD_1p_cbHRe_0p_cbHIm_0p'
p60
I129
sS'cHj1_0p_cHj3_0p_cHu_0p_cHd_0p_cHudRe_0p_cHudIm_0p_cHW_0p_cHWtil_0p_cHB_0p_cHBtil_0p_cHWB_1p_cHWBtil_0p_cHbox_0p_cHDD_0p_cbHRe_0p_cbHIm_1p'
p61
I137
sS'cHj1_0p_cHj3_0p_cHu_0p_cHd_0p_cHudRe_0p_cHudIm_0p_cHW_2p_cHWtil_0p_cHB_0p_cHBtil_0p_cHWB_0p_cHWBtil_0p_cHbox_0p_cHDD_0p_cbHRe_0p_cbHIm_0p'
p62
I98
sS'cHj1_0p_cHj3_0p_cHu_0p_cHd_0p_cHudRe_0p_cHudIm_0p_cHW_0p_cHWtil_0p_cHB_0p_cHBtil_1p_cHWB_0p_cHWBtil_1p_cHbox_0p_cHDD_0p_cbHRe_0p_cbHIm_0p'
p63
I127
sS'cHj1_0p_cHj3_0p_cHu_0p_cHd_0p_cHudRe_0p_cHudIm_0p_cHW_0p_cHWtil_0p_cHB_0p_cHBtil_1p_cHWB_0p_cHWBtil_0p_cHbox_1p_cHDD_0p_cbHRe_0p_cbHIm_0p'
p64
I128
sS'cHj1_0p_cHj3_0p_cHu_0p_cHd_0p_cHudRe_0p_cHudIm_0p_cHW_0p_cHWtil_0p_cHB_0p_cHBtil_0p_cHWB_0p_cHWBtil_0p_cHbox_0p_cHDD_1p_cbHRe_1p_cbHIm_0p'
p65
I148
sS'cHj1_0p_cHj3_0p_cHu_0p_cHd_0p_cHudRe_0p_cHudIm_1p_cHW_0p_cHWtil_0p_cHB_0p_cHBtil_1p_cHWB_0p_cHWBtil_0p_cHbox_0p_cHDD_0p_cbHRe_0p_cbHIm_0p'
p66
I91
sS'cHj1_0p_cHj3_0p_cHu_0p_cHd_0p_cHudRe_0p_cHudIm_0p_cHW_0p_cHWtil_0p_cHB_0p_cHBtil_0p_cHWB_0p_cHWBtil_2p_cHbox_0p_cHDD_0p_cbHRe_0p_cbHIm_0p'
p67
I138
sS'cHj1_1p_cHj3_0p_cHu_0p_cHd_0p_cHudRe_0p_cHudIm_0p_cHW_0p_cHWtil_1p_cHB_0p_cHBtil_0p_cHWB_0p_cHWBtil_0p_cHbox_0p_cHDD_0p_cbHRe_0p_cbHIm_0p'
p68
I24
sS'cHj1_0p_cHj3_0p_cHu_0p_cHd_0p_cHudRe_0p_cHudIm_0p_cHW_0p_cHWtil_0p_cHB_0p_cHBtil_0p_cHWB_0p_cHWBtil_0p_cHbox_2p_cHDD_0p_cbHRe_0p_cbHIm_0p'
p69
I143
sS'cHj1_0p_cHj3_0p_cHu_0p_cHd_1p_cHudRe_0p_cHudIm_0p_cHW_0p_cHWtil_0p_cHB_0p_cHBtil_0p_cHWB_0p_cHWBtil_0p_cHbox_0p_cHDD_0p_cbHRe_1p_cbHIm_0p'
p70
I73
sS'cHj1_0p_cHj3_1p_cHu_0p_cHd_0p_cHudRe_0p_cHudIm_1p_cHW_0p_cHWtil_0p_cHB_0p_cHBtil_0p_cHWB_0p_cHWBtil_0p_cHbox_0p_cHDD_0p_cbHRe_0p_cbHIm_0p'
p71
I37
sS'cHj1_0p_cHj3_0p_cHu_0p_cHd_0p_cHudRe_0p_cHudIm_0p_cHW_1p_cHWtil_0p_cHB_1p_cHBtil_0p_cHWB_0p_cHWBtil_0p_cHbox_0p_cHDD_0p_cbHRe_0p_cbHIm_0p'
p72
I100
sS'cHj1_0p_cHj3_0p_cHu_0p_cHd_0p_cHudRe_0p_cHudIm_0p_cHW_0p_cHWtil_0p_cHB_0p_cHBtil_0p_cHWB_0p_cHWBtil_1p_cHbox_0p_cHDD_1p_cbHRe_0p_cbHIm_0p'
p73
I140
sS'cHj1_0p_cHj3_0p_cHu_0p_cHd_0p_cHudRe_0p_cHudIm_0p_cHW_0p_cHWtil_0p_cHB_1p_cHBtil_0p_cHWB_0p_cHWBtil_1p_cHbox_0p_cHDD_0p_cbHRe_0p_cbHIm_0p'
p74
I120
sS'cHj1_1p_cHj3_0p_cHu_0p_cHd_0p_cHudRe_0p_cHudIm_0p_cHW_0p_cHWtil_0p_cHB_0p_cHBtil_0p_cHWB_0p_cHWBtil_0p_cHbox_0p_cHDD_1p_cbHRe_0p_cbHIm_0p'
p75
I30
sS'cHj1_0p_cHj3_0p_cHu_0p_cHd_0p_cHudRe_0p_cHudIm_0p_cHW_0p_cHWtil_0p_cHB_0p_cHBtil_0p_cHWB_1p_cHWBtil_0p_cHbox_0p_cHDD_1p_cbHRe_0p_cbHIm_0p'
p76
I135
sS'cHj1_0p_cHj3_0p_cHu_0p_cHd_1p_cHudRe_0p_cHudIm_0p_cHW_0p_cHWtil_1p_cHB_0p_cHBtil_0p_cHWB_0p_cHWBtil_0p_cHbox_0p_cHDD_0p_cbHRe_0p_cbHIm_0p'
p77
I66
sS'cHj1_0p_cHj3_0p_cHu_0p_cHd_0p_cHudRe_0p_cHudIm_0p_cHW_0p_cHWtil_0p_cHB_0p_cHBtil_1p_cHWB_1p_cHWBtil_0p_cHbox_0p_cHDD_0p_cbHRe_0p_cbHIm_0p'
p78
I126
sS'cHj1_0p_cHj3_0p_cHu_0p_cHd_0p_cHudRe_1p_cHudIm_0p_cHW_1p_cHWtil_0p_cHB_0p_cHBtil_0p_cHWB_0p_cHWBtil_0p_cHbox_0p_cHDD_0p_cbHRe_0p_cbHIm_0p'
p79
I77
sS'cHj1_0p_cHj3_1p_cHu_0p_cHd_0p_cHudRe_0p_cHudIm_0p_cHW_0p_cHWtil_0p_cHB_0p_cHBtil_0p_cHWB_0p_cHWBtil_0p_cHbox_1p_cHDD_0p_cbHRe_0p_cbHIm_0p'
p80
I44
sS'cHj1_0p_cHj3_0p_cHu_0p_cHd_0p_cHudRe_0p_cHudIm_0p_cHW_0p_cHWtil_0p_cHB_0p_cHBtil_0p_cHWB_1p_cHWBtil_1p_cHbox_0p_cHDD_0p_cbHRe_0p_cbHIm_0p'
p81
I133
sS'cHj1_0p_cHj3_0p_cHu_0p_cHd_0p_cHudRe_0p_cHudIm_0p_cHW_0p_cHWtil_0p_cHB_1p_cHBtil_0p_cHWB_0p_cHWBtil_0p_cHbox_0p_cHDD_0p_cbHRe_0p_cbHIm_0p'
p82
I9
sS'cHj1_1p_cHj3_0p_cHu_0p_cHd_0p_cHudRe_0p_cHudIm_0p_cHW_0p_cHWtil_0p_cHB_0p_cHBtil_0p_cHWB_1p_cHWBtil_0p_cHbox_0p_cHDD_0p_cbHRe_0p_cbHIm_0p'
p83
I27
sS'cHj1_0p_cHj3_0p_cHu_0p_cHd_0p_cHudRe_1p_cHudIm_0p_cHW_0p_cHWtil_0p_cHB_0p_cHBtil_0p_cHWB_0p_cHWBtil_0p_cHbox_0p_cHDD_0p_cbHRe_0p_cbHIm_0p'
p84
I5
sS'cHj1_0p_cHj3_0p_cHu_0p_cHd_1p_cHudRe_0p_cHudIm_0p_cHW_0p_cHWtil_0p_cHB_0p_cHBtil_1p_cHWB_0p_cHWBtil_0p_cHbox_0p_cHDD_0p_cbHRe_0p_cbHIm_0p'
p85
I68
sS'cHj1_0p_cHj3_0p_cHu_1p_cHd_0p_cHudRe_0p_cHudIm_1p_cHW_0p_cHWtil_0p_cHB_0p_cHBtil_0p_cHWB_0p_cHWBtil_0p_cHbox_0p_cHDD_0p_cbHRe_0p_cbHIm_0p'
p86
I51
sS'cHj1_0p_cHj3_0p_cHu_2p_cHd_0p_cHudRe_0p_cHudIm_0p_cHW_0p_cHWtil_0p_cHB_0p_cHBtil_0p_cHWB_0p_cHWBtil_0p_cHbox_0p_cHDD_0p_cbHRe_0p_cbHIm_0p'
p87
I48
sS'cHj1_0p_cHj3_0p_cHu_1p_cHd_0p_cHudRe_0p_cHudIm_0p_cHW_0p_cHWtil_0p_cHB_0p_cHBtil_0p_cHWB_0p_cHWBtil_0p_cHbox_0p_cHDD_0p_cbHRe_0p_cbHIm_0p'
p88
I3
sS'cHj1_0p_cHj3_0p_cHu_0p_cHd_0p_cHudRe_1p_cHudIm_0p_cHW_0p_cHWtil_0p_cHB_1p_cHBtil_0p_cHWB_0p_cHWBtil_0p_cHbox_0p_cHDD_0p_cbHRe_0p_cbHIm_0p'
p89
I79
sS'cHj1_0p_cHj3_0p_cHu_0p_cHd_0p_cHudRe_0p_cHudIm_0p_cHW_0p_cHWtil_0p_cHB_0p_cHBtil_0p_cHWB_0p_cHWBtil_1p_cHbox_0p_cHDD_0p_cbHRe_1p_cbHIm_0p'
p90
I141
sS'cHj1_0p_cHj3_0p_cHu_0p_cHd_0p_cHudRe_0p_cHudIm_1p_cHW_0p_cHWtil_0p_cHB_0p_cHBtil_0p_cHWB_0p_cHWBtil_0p_cHbox_0p_cHDD_0p_cbHRe_0p_cbHIm_0p'
p91
I6
sS'cHj1_0p_cHj3_1p_cHu_1p_cHd_0p_cHudRe_0p_cHudIm_0p_cHW_0p_cHWtil_0p_cHB_0p_cHBtil_0p_cHWB_0p_cHWBtil_0p_cHbox_0p_cHDD_0p_cbHRe_0p_cbHIm_0p'
p92
I34
sS'cHj1_0p_cHj3_0p_cHu_0p_cHd_0p_cHudRe_0p_cHudIm_0p_cHW_0p_cHWtil_0p_cHB_0p_cHBtil_0p_cHWB_0p_cHWBtil_1p_cHbox_1p_cHDD_0p_cbHRe_0p_cbHIm_0p'
p93
I139
sS'cHj1_0p_cHj3_0p_cHu_0p_cHd_0p_cHudRe_0p_cHudIm_0p_cHW_1p_cHWtil_0p_cHB_0p_cHBtil_0p_cHWB_0p_cHWBtil_0p_cHbox_0p_cHDD_0p_cbHRe_0p_cbHIm_0p'
p94
I7
sS'cHj1_0p_cHj3_0p_cHu_0p_cHd_0p_cHudRe_0p_cHudIm_0p_cHW_0p_cHWtil_0p_cHB_0p_cHBtil_0p_cHWB_0p_cHWBtil_0p_cHbox_0p_cHDD_1p_cbHRe_0p_cbHIm_0p'
p95
I14
sS'cHj1_0p_cHj3_0p_cHu_0p_cHd_1p_cHudRe_1p_cHudIm_0p_cHW_0p_cHWtil_0p_cHB_0p_cHBtil_0p_cHWB_0p_cHWBtil_0p_cHbox_0p_cHDD_0p_cbHRe_0p_cbHIm_0p'
p96
I63
sS'cHj1_0p_cHj3_0p_cHu_0p_cHd_0p_cHudRe_1p_cHudIm_1p_cHW_0p_cHWtil_0p_cHB_0p_cHBtil_0p_cHWB_0p_cHWBtil_0p_cHbox_0p_cHDD_0p_cbHRe_0p_cbHIm_0p'
p97
I76
sS'cHj1_0p_cHj3_0p_cHu_1p_cHd_0p_cHudRe_0p_cHudIm_0p_cHW_0p_cHWtil_0p_cHB_0p_cHBtil_1p_cHWB_0p_cHWBtil_0p_cHbox_0p_cHDD_0p_cbHRe_0p_cbHIm_0p'
p98
I55
sS'cHj1_0p_cHj3_0p_cHu_0p_cHd_0p_cHudRe_1p_cHudIm_0p_cHW_0p_cHWtil_0p_cHB_0p_cHBtil_0p_cHWB_0p_cHWBtil_0p_cHbox_0p_cHDD_0p_cbHRe_0p_cbHIm_1p'
p99
I86
sS'cHj1_0p_cHj3_0p_cHu_1p_cHd_0p_cHudRe_0p_cHudIm_0p_cHW_1p_cHWtil_0p_cHB_0p_cHBtil_0p_cHWB_0p_cHWBtil_0p_cHbox_0p_cHDD_0p_cbHRe_0p_cbHIm_0p'
p100
I52
sS'cHj1_0p_cHj3_0p_cHu_0p_cHd_0p_cHudRe_0p_cHudIm_0p_cHW_1p_cHWtil_0p_cHB_0p_cHBtil_1p_cHWB_0p_cHWBtil_0p_cHbox_0p_cHDD_0p_cbHRe_0p_cbHIm_0p'
p101
I101
sS'cHj1_0p_cHj3_0p_cHu_0p_cHd_0p_cHudRe_1p_cHudIm_0p_cHW_0p_cHWtil_0p_cHB_0p_cHBtil_0p_cHWB_0p_cHWBtil_0p_cHbox_0p_cHDD_1p_cbHRe_0p_cbHIm_0p'
p102
I84
sS'cHj1_0p_cHj3_0p_cHu_0p_cHd_0p_cHudRe_0p_cHudIm_0p_cHW_0p_cHWtil_0p_cHB_0p_cHBtil_0p_cHWB_0p_cHWBtil_0p_cHbox_0p_cHDD_0p_cbHRe_0p_cbHIm_0p'
p103
I0
sS'cHj1_0p_cHj3_0p_cHu_0p_cHd_0p_cHudRe_0p_cHudIm_0p_cHW_0p_cHWtil_0p_cHB_1p_cHBtil_0p_cHWB_0p_cHWBtil_0p_cHbox_0p_cHDD_0p_cbHRe_1p_cbHIm_0p'
p104
I123
sS'cHj1_0p_cHj3_0p_cHu_0p_cHd_0p_cHudRe_0p_cHudIm_0p_cHW_1p_cHWtil_0p_cHB_0p_cHBtil_0p_cHWB_0p_cHWBtil_0p_cHbox_0p_cHDD_0p_cbHRe_1p_cbHIm_0p'
p105
I106
sS'cHj1_1p_cHj3_0p_cHu_0p_cHd_0p_cHudRe_0p_cHudIm_0p_cHW_0p_cHWtil_0p_cHB_0p_cHBtil_0p_cHWB_0p_cHWBtil_0p_cHbox_0p_cHDD_0p_cbHRe_1p_cbHIm_0p'
p106
I31
sS'cHj1_0p_cHj3_0p_cHu_1p_cHd_0p_cHudRe_0p_cHudIm_0p_cHW_0p_cHWtil_0p_cHB_0p_cHBtil_0p_cHWB_0p_cHWBtil_0p_cHbox_0p_cHDD_1p_cbHRe_0p_cbHIm_0p'
p107
I59
sS'cHj1_0p_cHj3_0p_cHu_0p_cHd_0p_cHudRe_0p_cHudIm_0p_cHW_0p_cHWtil_0p_cHB_1p_cHBtil_0p_cHWB_0p_cHWBtil_0p_cHbox_1p_cHDD_0p_cbHRe_0p_cbHIm_0p'
p108
I121
sS'cHj1_0p_cHj3_0p_cHu_0p_cHd_0p_cHudRe_0p_cHudIm_0p_cHW_0p_cHWtil_1p_cHB_0p_cHBtil_0p_cHWB_0p_cHWBtil_0p_cHbox_0p_cHDD_1p_cbHRe_0p_cbHIm_0p'
p109
I114
sS'cHj1_0p_cHj3_0p_cHu_0p_cHd_0p_cHudRe_0p_cHudIm_1p_cHW_0p_cHWtil_0p_cHB_0p_cHBtil_0p_cHWB_0p_cHWBtil_0p_cHbox_0p_cHDD_0p_cbHRe_0p_cbHIm_1p'
p110
I97
sS'cHj1_0p_cHj3_0p_cHu_0p_cHd_0p_cHudRe_0p_cHudIm_0p_cHW_0p_cHWtil_0p_cHB_0p_cHBtil_0p_cHWB_2p_cHWBtil_0p_cHbox_0p_cHDD_0p_cbHRe_0p_cbHIm_0p'
p111
I132
sS'cHj1_0p_cHj3_0p_cHu_1p_cHd_0p_cHudRe_0p_cHudIm_0p_cHW_0p_cHWtil_0p_cHB_0p_cHBtil_0p_cHWB_0p_cHWBtil_0p_cHbox_0p_cHDD_0p_cbHRe_0p_cbHIm_1p'
p112
I61
sS'cHj1_0p_cHj3_0p_cHu_0p_cHd_0p_cHudRe_0p_cHudIm_0p_cHW_0p_cHWtil_0p_cHB_0p_cHBtil_0p_cHWB_0p_cHWBtil_0p_cHbox_0p_cHDD_1p_cbHRe_0p_cbHIm_1p'
p113
I149
sS'cHj1_0p_cHj3_0p_cHu_0p_cHd_0p_cHudRe_0p_cHudIm_0p_cHW_0p_cHWtil_1p_cHB_0p_cHBtil_0p_cHWB_0p_cHWBtil_0p_cHbox_1p_cHDD_0p_cbHRe_0p_cbHIm_0p'
p114
I113
sS'cHj1_0p_cHj3_0p_cHu_0p_cHd_0p_cHudRe_1p_cHudIm_0p_cHW_0p_cHWtil_0p_cHB_0p_cHBtil_0p_cHWB_0p_cHWBtil_1p_cHbox_0p_cHDD_0p_cbHRe_0p_cbHIm_0p'
p115
I82
sS'cHj1_0p_cHj3_0p_cHu_0p_cHd_0p_cHudRe_0p_cHudIm_1p_cHW_0p_cHWtil_0p_cHB_0p_cHBtil_0p_cHWB_0p_cHWBtil_0p_cHbox_0p_cHDD_1p_cbHRe_0p_cbHIm_0p'
p116
I95
sS'cHj1_0p_cHj3_0p_cHu_0p_cHd_0p_cHudRe_0p_cHudIm_0p_cHW_0p_cHWtil_1p_cHB_0p_cHBtil_0p_cHWB_0p_cHWBtil_1p_cHbox_0p_cHDD_0p_cbHRe_0p_cbHIm_0p'
p117
I112
sS'cHj1_0p_cHj3_0p_cHu_0p_cHd_0p_cHudRe_1p_cHudIm_0p_cHW_0p_cHWtil_0p_cHB_0p_cHBtil_0p_cHWB_1p_cHWBtil_0p_cHbox_0p_cHDD_0p_cbHRe_0p_cbHIm_0p'
p118
I81
sS'cHj1_0p_cHj3_0p_cHu_0p_cHd_0p_cHudRe_0p_cHudIm_0p_cHW_1p_cHWtil_0p_cHB_0p_cHBtil_0p_cHWB_1p_cHWBtil_0p_cHbox_0p_cHDD_0p_cbHRe_0p_cbHIm_0p'
p119
I102
sS'cHj1_0p_cHj3_0p_cHu_0p_cHd_0p_cHudRe_0p_cHudIm_0p_cHW_0p_cHWtil_0p_cHB_2p_cHBtil_0p_cHWB_0p_cHWBtil_0p_cHbox_0p_cHDD_0p_cbHRe_0p_cbHIm_0p'
p120
I117
sS'cHj1_0p_cHj3_0p_cHu_0p_cHd_0p_cHudRe_0p_cHudIm_0p_cHW_1p_cHWtil_0p_cHB_0p_cHBtil_0p_cHWB_0p_cHWBtil_0p_cHbox_0p_cHDD_0p_cbHRe_0p_cbHIm_1p'
p121
I107
sS'cHj1_0p_cHj3_0p_cHu_0p_cHd_1p_cHudRe_0p_cHudIm_0p_cHW_0p_cHWtil_0p_cHB_0p_cHBtil_0p_cHWB_0p_cHWBtil_0p_cHbox_0p_cHDD_0p_cbHRe_0p_cbHIm_0p'
p122
I4
sS'cHj1_2p_cHj3_0p_cHu_0p_cHd_0p_cHudRe_0p_cHudIm_0p_cHW_0p_cHWtil_0p_cHB_0p_cHBtil_0p_cHWB_0p_cHWBtil_0p_cHbox_0p_cHDD_0p_cbHRe_0p_cbHIm_0p'
p123
I17
sS'cHj1_1p_cHj3_0p_cHu_0p_cHd_0p_cHudRe_0p_cHudIm_0p_cHW_0p_cHWtil_0p_cHB_0p_cHBtil_1p_cHWB_0p_cHWBtil_0p_cHbox_0p_cHDD_0p_cbHRe_0p_cbHIm_0p'
p124
I26
sS'cHj1_1p_cHj3_1p_cHu_0p_cHd_0p_cHudRe_0p_cHudIm_0p_cHW_0p_cHWtil_0p_cHB_0p_cHBtil_0p_cHWB_0p_cHWBtil_0p_cHbox_0p_cHDD_0p_cbHRe_0p_cbHIm_0p'
p125
I18
sS'cHj1_0p_cHj3_0p_cHu_0p_cHd_0p_cHudRe_0p_cHudIm_0p_cHW_0p_cHWtil_0p_cHB_0p_cHBtil_0p_cHWB_0p_cHWBtil_0p_cHbox_0p_cHDD_0p_cbHRe_0p_cbHIm_2p'
p126
I152
sS'cHj1_0p_cHj3_0p_cHu_0p_cHd_0p_cHudRe_1p_cHudIm_0p_cHW_0p_cHWtil_1p_cHB_0p_cHBtil_0p_cHWB_0p_cHWBtil_0p_cHbox_0p_cHDD_0p_cbHRe_0p_cbHIm_0p'
p127
I78
sS'cHj1_0p_cHj3_0p_cHu_0p_cHd_0p_cHudRe_0p_cHudIm_0p_cHW_0p_cHWtil_0p_cHB_0p_cHBtil_0p_cHWB_0p_cHWBtil_0p_cHbox_0p_cHDD_0p_cbHRe_0p_cbHIm_1p'
p128
I16
sS'cHj1_0p_cHj3_0p_cHu_0p_cHd_0p_cHudRe_2p_cHudIm_0p_cHW_0p_cHWtil_0p_cHB_0p_cHBtil_0p_cHWB_0p_cHWBtil_0p_cHbox_0p_cHDD_0p_cbHRe_0p_cbHIm_0p'
p129
I75
sS'cHj1_0p_cHj3_0p_cHu_1p_cHd_0p_cHudRe_0p_cHudIm_0p_cHW_0p_cHWtil_0p_cHB_0p_cHBtil_0p_cHWB_0p_cHWBtil_1p_cHbox_0p_cHDD_0p_cbHRe_0p_cbHIm_0p'
p130
I57
sS'cHj1_0p_cHj3_0p_cHu_0p_cHd_0p_cHudRe_1p_cHudIm_0p_cHW_0p_cHWtil_0p_cHB_0p_cHBtil_0p_cHWB_0p_cHWBtil_0p_cHbox_1p_cHDD_0p_cbHRe_0p_cbHIm_0p'
p131
I83
sS'cHj1_0p_cHj3_1p_cHu_0p_cHd_0p_cHudRe_0p_cHudIm_0p_cHW_0p_cHWtil_0p_cHB_0p_cHBtil_0p_cHWB_0p_cHWBtil_1p_cHbox_0p_cHDD_0p_cbHRe_0p_cbHIm_0p'
p132
I43
sS'cHj1_0p_cHj3_0p_cHu_0p_cHd_2p_cHudRe_0p_cHudIm_0p_cHW_0p_cHWtil_0p_cHB_0p_cHBtil_0p_cHWB_0p_cHWBtil_0p_cHbox_0p_cHDD_0p_cbHRe_0p_cbHIm_0p'
p133
I62
sS'cHj1_0p_cHj3_0p_cHu_0p_cHd_0p_cHudRe_0p_cHudIm_0p_cHW_0p_cHWtil_0p_cHB_0p_cHBtil_0p_cHWB_0p_cHWBtil_1p_cHbox_0p_cHDD_0p_cbHRe_0p_cbHIm_0p'
p134
I12
sS'cHj1_0p_cHj3_0p_cHu_0p_cHd_0p_cHudRe_0p_cHudIm_1p_cHW_0p_cHWtil_0p_cHB_0p_cHBtil_0p_cHWB_1p_cHWBtil_0p_cHbox_0p_cHDD_0p_cbHRe_0p_cbHIm_0p'
p135
I92
sS'cHj1_0p_cHj3_0p_cHu_0p_cHd_0p_cHudRe_0p_cHudIm_0p_cHW_0p_cHWtil_0p_cHB_0p_cHBtil_0p_cHWB_0p_cHWBtil_0p_cHbox_0p_cHDD_0p_cbHRe_2p_cbHIm_0p'
p136
I150
sS'cHj1_0p_cHj3_0p_cHu_0p_cHd_0p_cHudRe_0p_cHudIm_0p_cHW_0p_cHWtil_0p_cHB_0p_cHBtil_0p_cHWB_0p_cHWBtil_0p_cHbox_0p_cHDD_0p_cbHRe_1p_cbHIm_0p'
p137
I15
sS'cHj1_0p_cHj3_1p_cHu_0p_cHd_0p_cHudRe_0p_cHudIm_0p_cHW_0p_cHWtil_0p_cHB_0p_cHBtil_0p_cHWB_1p_cHWBtil_0p_cHbox_0p_cHDD_0p_cbHRe_0p_cbHIm_0p'
p138
I42
sS'cHj1_1p_cHj3_0p_cHu_0p_cHd_0p_cHudRe_1p_cHudIm_0p_cHW_0p_cHWtil_0p_cHB_0p_cHBtil_0p_cHWB_0p_cHWBtil_0p_cHbox_0p_cHDD_0p_cbHRe_0p_cbHIm_0p'
p139
I21
sS'cHj1_0p_cHj3_0p_cHu_0p_cHd_0p_cHudRe_0p_cHudIm_1p_cHW_0p_cHWtil_1p_cHB_0p_cHBtil_0p_cHWB_0p_cHWBtil_0p_cHbox_0p_cHDD_0p_cbHRe_0p_cbHIm_0p'
p140
I89
sS'cHj1_0p_cHj3_0p_cHu_0p_cHd_1p_cHudRe_0p_cHudIm_0p_cHW_0p_cHWtil_0p_cHB_0p_cHBtil_0p_cHWB_0p_cHWBtil_0p_cHbox_0p_cHDD_0p_cbHRe_0p_cbHIm_1p'
p141
I74
sS'cHj1_0p_cHj3_0p_cHu_1p_cHd_0p_cHudRe_0p_cHudIm_0p_cHW_0p_cHWtil_0p_cHB_0p_cHBtil_0p_cHWB_0p_cHWBtil_0p_cHbox_1p_cHDD_0p_cbHRe_0p_cbHIm_0p'
p142
I58
sS'cHj1_0p_cHj3_0p_cHu_0p_cHd_0p_cHudRe_0p_cHudIm_1p_cHW_0p_cHWtil_0p_cHB_1p_cHBtil_0p_cHWB_0p_cHWBtil_0p_cHbox_0p_cHDD_0p_cbHRe_0p_cbHIm_0p'
p143
I90
sS'cHj1_0p_cHj3_0p_cHu_0p_cHd_0p_cHudRe_0p_cHudIm_0p_cHW_0p_cHWtil_1p_cHB_1p_cHBtil_0p_cHWB_0p_cHWBtil_0p_cHbox_0p_cHDD_0p_cbHRe_0p_cbHIm_0p'
p144
I109
sS'cHj1_0p_cHj3_0p_cHu_0p_cHd_1p_cHudRe_0p_cHudIm_0p_cHW_0p_cHWtil_0p_cHB_0p_cHBtil_0p_cHWB_0p_cHWBtil_1p_cHbox_0p_cHDD_0p_cbHRe_0p_cbHIm_0p'
p145
I70
sS'cHj1_0p_cHj3_0p_cHu_0p_cHd_0p_cHudRe_0p_cHudIm_0p_cHW_0p_cHWtil_0p_cHB_0p_cHBtil_0p_cHWB_0p_cHWBtil_0p_cHbox_1p_cHDD_1p_cbHRe_0p_cbHIm_0p'
p146
I144
sS'cHj1_0p_cHj3_0p_cHu_1p_cHd_0p_cHudRe_0p_cHudIm_0p_cHW_0p_cHWtil_0p_cHB_1p_cHBtil_0p_cHWB_0p_cHWBtil_0p_cHbox_0p_cHDD_0p_cbHRe_0p_cbHIm_0p'
p147
I54
sS'cHj1_0p_cHj3_0p_cHu_0p_cHd_0p_cHudRe_0p_cHudIm_0p_cHW_0p_cHWtil_0p_cHB_0p_cHBtil_0p_cHWB_1p_cHWBtil_0p_cHbox_0p_cHDD_0p_cbHRe_0p_cbHIm_0p'
p148
I11
sS'cHj1_0p_cHj3_0p_cHu_1p_cHd_1p_cHudRe_0p_cHudIm_0p_cHW_0p_cHWtil_0p_cHB_0p_cHBtil_0p_cHWB_0p_cHWBtil_0p_cHbox_0p_cHDD_0p_cbHRe_0p_cbHIm_0p'
p149
I49
sS'cHj1_0p_cHj3_0p_cHu_0p_cHd_1p_cHudRe_0p_cHudIm_0p_cHW_0p_cHWtil_0p_cHB_1p_cHBtil_0p_cHWB_0p_cHWBtil_0p_cHbox_0p_cHDD_0p_cbHRe_0p_cbHIm_0p'
p150
I67
sS'cHj1_0p_cHj3_1p_cHu_0p_cHd_0p_cHudRe_0p_cHudIm_0p_cHW_0p_cHWtil_0p_cHB_1p_cHBtil_0p_cHWB_0p_cHWBtil_0p_cHbox_0p_cHDD_0p_cbHRe_0p_cbHIm_0p'
p151
I40
sS'cHj1_0p_cHj3_0p_cHu_0p_cHd_0p_cHudRe_0p_cHudIm_0p_cHW_1p_cHWtil_0p_cHB_0p_cHBtil_0p_cHWB_0p_cHWBtil_0p_cHbox_1p_cHDD_0p_cbHRe_0p_cbHIm_0p'
p152
I104
sS'cHj1_0p_cHj3_0p_cHu_1p_cHd_0p_cHudRe_1p_cHudIm_0p_cHW_0p_cHWtil_0p_cHB_0p_cHBtil_0p_cHWB_0p_cHWBtil_0p_cHbox_0p_cHDD_0p_cbHRe_0p_cbHIm_0p'
p153
I50
sS'cHj1_0p_cHj3_1p_cHu_0p_cHd_0p_cHudRe_0p_cHudIm_0p_cHW_0p_cHWtil_0p_cHB_0p_cHBtil_1p_cHWB_0p_cHWBtil_0p_cHbox_0p_cHDD_0p_cbHRe_0p_cbHIm_0p'
p154
I41
sS'cHj1_0p_cHj3_0p_cHu_0p_cHd_0p_cHudRe_0p_cHudIm_0p_cHW_0p_cHWtil_0p_cHB_0p_cHBtil_0p_cHWB_0p_cHWBtil_1p_cHbox_0p_cHDD_0p_cbHRe_0p_cbHIm_1p'
p155
I142
sS'cHj1_0p_cHj3_0p_cHu_0p_cHd_0p_cHudRe_0p_cHudIm_2p_cHW_0p_cHWtil_0p_cHB_0p_cHBtil_0p_cHWB_0p_cHWBtil_0p_cHbox_0p_cHDD_0p_cbHRe_0p_cbHIm_0p'
p156
I87
sS'cHj1_0p_cHj3_0p_cHu_1p_cHd_0p_cHudRe_0p_cHudIm_0p_cHW_0p_cHWtil_0p_cHB_0p_cHBtil_0p_cHWB_0p_cHWBtil_0p_cHbox_0p_cHDD_0p_cbHRe_1p_cbHIm_0p'
p157
I60
ssS'order'
p158
(dp159
g158
I2
ss.